target datalayout = "e-m:e-p270:32:32-p271:32:32-p272:64:64-i64:64-i128:128-f80:128-n8:16:32:64-S128"
target triple = "x86_64-pc-linux-gnu"

%struct.Curl_cftype = type { ptr, i32, i32, ptr, ptr, ptr, ptr, ptr, ptr, ptr, ptr, ptr, ptr, ptr, ptr, ptr }
%struct.Curl_cfilter = type { ptr, ptr, ptr, ptr, i32, i8 }
%struct.Curl_easy = type { i32, i64, i64, ptr, %struct.Curl_llist_node, %struct.Curl_llist_node, i32, i32, %struct.Curl_message, %struct.easy_pollset, %struct.Names, ptr, ptr, ptr, %struct.SingleRequest, %struct.UserDefined, ptr, ptr, %struct.Progress, %struct.UrlState, ptr, %struct.PureInfo, %struct.curl_tlssessioninfo }
%struct.Curl_llist_node = type { ptr, ptr, ptr, ptr }
%struct.Curl_message = type { %struct.Curl_llist_node, %struct.CURLMsg }
%struct.CURLMsg = type { i32, ptr, %union.anon.0 }
%union.anon.0 = type { ptr }
%struct.easy_pollset = type { [5 x i32], i32, [5 x i8] }
%struct.Names = type { ptr, i32 }
%struct.SingleRequest = type <{ i64, i64, i64, i64, %struct.curltime, i32, i32, i32, i32, i64, i32, i32, i32, i32, ptr, ptr, %struct.bufq, i64, i64, ptr, ptr, %union.anon.1, ptr, i8, i32, [3 x i8] }>
%struct.curltime = type { i64, i32 }
%struct.bufq = type { ptr, ptr, ptr, ptr, i64, i64, i64, i32 }
%union.anon.1 = type { ptr }
%struct.UserDefined = type <{ ptr, ptr, ptr, ptr, ptr, ptr, i16, [6 x i8], i64, i64, i64, ptr, ptr, i64, i16, i16, [4 x i8], ptr, ptr, ptr, ptr, ptr, ptr, ptr, ptr, ptr, ptr, ptr, ptr, ptr, ptr, ptr, ptr, ptr, ptr, ptr, ptr, ptr, ptr, ptr, i32, i32, i32, i32, i32, [4 x i8], i64, i64, i64, i64, i64, i64, i64, i64, ptr, ptr, %struct.curl_mimepart, ptr, ptr, i64, i8, i8, i8, [5 x i8], %struct.ssl_config_data, %struct.ssl_config_data, ptr, i16, i8, i8, [4 x i8], %struct.ssl_general_config, i32, i32, i32, [4 x i8], ptr, ptr, i8, [7 x i8], i64, i8, i8, i8, i8, i32, ptr, ptr, ptr, i8, i8, [2 x i8], i32, [63 x ptr], [8 x ptr], i32, i32, i32, [4 x i8], ptr, ptr, ptr, ptr, ptr, i8, [3 x i8], i32, i32, i32, i64, %struct.Curl_data_priority, ptr, ptr, i64, ptr, i64, ptr, ptr, ptr, i8, [3 x i8], i32, i8, i8, i64, [6 x i8] }>
%struct.curl_mimepart = type { ptr, ptr, i32, i32, ptr, ptr, ptr, ptr, ptr, ptr, ptr, ptr, ptr, ptr, ptr, i64, %struct.mime_state, ptr, %struct.mime_encoder_state, i64 }
%struct.mime_state = type { i32, ptr, i64 }
%struct.mime_encoder_state = type { i64, i64, i64, [256 x i8] }
%struct.ssl_config_data = type { %struct.ssl_primary_config, i64, ptr, ptr, ptr, ptr, ptr, ptr, ptr, i16 }
%struct.ssl_primary_config = type { ptr, ptr, ptr, ptr, ptr, ptr, ptr, ptr, ptr, ptr, ptr, ptr, i8, i32, i8, i8 }
%struct.ssl_general_config = type { i64, i32 }
%struct.Curl_data_priority = type { ptr, ptr, i32, i8 }
%struct.Progress = type { i64, %struct.pgrs_dir, %struct.pgrs_dir, i64, i64, i32, i32, i64, i64, i64, i64, i64, i64, i64, i64, i64, %struct.curltime, %struct.curltime, %struct.curltime, %struct.curltime, [6 x i64], [6 x %struct.curltime], i32, i8 }
%struct.pgrs_dir = type { i64, i64, i64, %struct.pgrs_measure }
%struct.pgrs_measure = type { %struct.curltime, i64 }
%struct.UrlState = type { %struct.curltime, i64, i64, %struct.dynbuf, ptr, i64, ptr, i32, i32, i32, ptr, i64, i32, i64, i32, ptr, %struct.digestdata, %struct.digestdata, %struct.auth, %struct.auth, %struct.Curl_async, ptr, %struct.curltime, %struct.Curl_tree, %struct.Curl_llist, [15 x %struct.time_node], ptr, ptr, i64, i64, %struct.Curl_data_priority, ptr, ptr, ptr, %struct.urlpieces, ptr, ptr, ptr, ptr, ptr, i64, %struct.dynbuf, %struct.Curl_llist, [2 x %struct.curl_header], ptr, i32, ptr, ptr, %struct.store_netrc, %struct.dynamically_allocated_data, i8, i8, i8, i8, i32 }
%struct.digestdata = type { ptr, ptr, ptr, ptr, ptr, ptr, i32, i8, i8 }
%struct.auth = type { i64, i64, i64, i8 }
%struct.Curl_async = type { ptr, ptr, ptr, ptr, i32, i32, i8 }
%struct.Curl_tree = type { ptr, ptr, ptr, ptr, %struct.curltime, ptr }
%struct.time_node = type { %struct.Curl_llist_node, %struct.curltime, i32 }
%struct.urlpieces = type { ptr, ptr, ptr, ptr, ptr, ptr, ptr, ptr }
%struct.dynbuf = type { ptr, i64, i64, i64 }
%struct.Curl_llist = type { ptr, ptr, ptr, i64 }
%struct.curl_header = type { ptr, ptr, i64, i64, i32, ptr }
%struct.store_netrc = type { %struct.dynbuf, ptr, i8 }
%struct.dynamically_allocated_data = type { ptr, ptr, ptr, ptr, ptr, ptr, ptr, ptr, ptr, ptr, ptr, ptr, ptr }
%struct.PureInfo = type { i32, i32, i32, i64, i64, i64, i64, i64, ptr, ptr, i64, i32, %struct.ip_quadruple, i32, ptr, i32, %struct.curl_certinfo, i32, i8 }
%struct.ip_quadruple = type { [46 x i8], [46 x i8], i32, i32 }
%struct.curl_certinfo = type { i32, ptr }
%struct.curl_tlssessioninfo = type { i32, ptr }
%struct.curl_trc_feat = type { ptr, i32 }
%struct.cf_hc_ctx = type { i32, ptr, %struct.curltime, i32, %struct.cf_hc_baller, %struct.cf_hc_baller, i32, i32 }
%struct.cf_hc_baller = type { ptr, ptr, i32, %struct.curltime, i32, i8 }

@.str.15 = private unnamed_addr constant [13 x i8] c"data_pending\00", align 1

; Function Attrs: nounwind uwtable
define internal zeroext i1 @cf_hc_baller_data_pending(ptr noundef %0, ptr noundef %1) #0 {
  %3 = alloca ptr, align 8
  %4 = alloca ptr, align 8
  store ptr %0, ptr %3, align 8, !tbaa !119
  store ptr %1, ptr %4, align 8, !tbaa !9
  %5 = load ptr, ptr %3, align 8, !tbaa !119
  %6 = getelementptr inbounds nuw %struct.cf_hc_baller, ptr %5, i32 0, i32 1
  %7 = load ptr, ptr %6, align 8, !tbaa !121
  %8 = icmp ne ptr %7, null
  br i1 %8, label %9, label %27

9:                                                ; preds = %2
  %10 = load ptr, ptr %3, align 8, !tbaa !119
  %11 = getelementptr inbounds nuw %struct.cf_hc_baller, ptr %10, i32 0, i32 2
  %12 = load i32, ptr %11, align 8, !tbaa !123
  %13 = icmp ne i32 %12, 0
  br i1 %13, label %27, label %14

14:                                               ; preds = %9
  %15 = load ptr, ptr %3, align 8, !tbaa !119
  %16 = getelementptr inbounds nuw %struct.cf_hc_baller, ptr %15, i32 0, i32 1
  %17 = load ptr, ptr %16, align 8, !tbaa !121
  %18 = getelementptr inbounds nuw %struct.Curl_cfilter, ptr %17, i32 0, i32 0
  %19 = load ptr, ptr %18, align 8, !tbaa !87
  %20 = getelementptr inbounds nuw %struct.Curl_cftype, ptr %19, i32 0, i32 9
  %21 = load ptr, ptr %20, align 8, !tbaa !132
  %22 = load ptr, ptr %3, align 8, !tbaa !119
  %23 = getelementptr inbounds nuw %struct.cf_hc_baller, ptr %22, i32 0, i32 1
  %24 = load ptr, ptr %23, align 8, !tbaa !121
  %25 = load ptr, ptr %4, align 8, !tbaa !9
  %26 = call zeroext i1 %21(ptr noundef %24, ptr noundef %25)
  br label %27

27:                                               ; preds = %14, %9, %2
  %28 = phi i1 [ false, %9 ], [ false, %2 ], [ %26, %14 ]
  ret i1 %28
}

; Function Attrs: nounwind uwtable
define internal zeroext i1 @cf_hc_data_pending(ptr noundef %0, ptr noundef %1) #0 {
  %3 = alloca i1, align 1
  %4 = alloca ptr, align 8
  %5 = alloca ptr, align 8
  %6 = alloca ptr, align 8
  %7 = alloca i32, align 4
  store ptr %0, ptr %4, align 8, !tbaa !4
  store ptr %1, ptr %5, align 8, !tbaa !9
  call void @llvm.lifetime.start.p0(i64 8, ptr %6) #5
  %8 = load ptr, ptr %4, align 8, !tbaa !4
  %9 = getelementptr inbounds nuw %struct.Curl_cfilter, ptr %8, i32 0, i32 2
  %10 = load ptr, ptr %9, align 8, !tbaa !11
  store ptr %10, ptr %6, align 8, !tbaa !16
  %11 = load ptr, ptr %4, align 8, !tbaa !4
  %12 = getelementptr inbounds nuw %struct.Curl_cfilter, ptr %11, i32 0, i32 5
  %13 = load i8, ptr %12, align 4
  %14 = and i8 %13, 1
  %15 = zext i8 %14 to i32
  %16 = icmp ne i32 %15, 0
  br i1 %16, label %17, label %30

17:                                               ; preds = %2
  %18 = load ptr, ptr %4, align 8, !tbaa !4
  %19 = getelementptr inbounds nuw %struct.Curl_cfilter, ptr %18, i32 0, i32 1
  %20 = load ptr, ptr %19, align 8, !tbaa !117
  %21 = getelementptr inbounds nuw %struct.Curl_cfilter, ptr %20, i32 0, i32 0
  %22 = load ptr, ptr %21, align 8, !tbaa !87
  %23 = getelementptr inbounds nuw %struct.Curl_cftype, ptr %22, i32 0, i32 9
  %24 = load ptr, ptr %23, align 8, !tbaa !132
  %25 = load ptr, ptr %4, align 8, !tbaa !4
  %26 = getelementptr inbounds nuw %struct.Curl_cfilter, ptr %25, i32 0, i32 1
  %27 = load ptr, ptr %26, align 8, !tbaa !117
  %28 = load ptr, ptr %5, align 8, !tbaa !9
  %29 = call zeroext i1 %24(ptr noundef %27, ptr noundef %28)
  store i1 %29, ptr %3, align 1
  store i32 1, ptr %7, align 4
  br label %84

30:                                               ; preds = %2
  br label %31

31:                                               ; preds = %30
  %32 = load ptr, ptr %5, align 8, !tbaa !9
  %33 = icmp ne ptr %32, null
  br i1 %33, label %34, label %70

34:                                               ; preds = %31
  %35 = load ptr, ptr %5, align 8, !tbaa !9
  %36 = getelementptr inbounds nuw %struct.Curl_easy, ptr %35, i32 0, i32 15
  %37 = getelementptr inbounds nuw %struct.UserDefined, ptr %36, i32 0, i32 124
  %38 = load i64, ptr %37, align 2
  %39 = lshr i64 %38, 27
  %40 = and i64 %39, 1
  %41 = trunc i64 %40 to i32
  %42 = icmp ne i32 %41, 0
  br i1 %42, label %43, label %70

43:                                               ; preds = %34
  %44 = load ptr, ptr %5, align 8, !tbaa !9
  %45 = getelementptr inbounds nuw %struct.Curl_easy, ptr %44, i32 0, i32 19
  %46 = getelementptr inbounds nuw %struct.UrlState, ptr %45, i32 0, i32 47
  %47 = load ptr, ptr %46, align 8, !tbaa !18
  %48 = icmp ne ptr %47, null
  br i1 %48, label %49, label %57

49:                                               ; preds = %43
  %50 = load ptr, ptr %5, align 8, !tbaa !9
  %51 = getelementptr inbounds nuw %struct.Curl_easy, ptr %50, i32 0, i32 19
  %52 = getelementptr inbounds nuw %struct.UrlState, ptr %51, i32 0, i32 47
  %53 = load ptr, ptr %52, align 8, !tbaa !18
  %54 = getelementptr inbounds nuw %struct.curl_trc_feat, ptr %53, i32 0, i32 1
  %55 = load i32, ptr %54, align 8, !tbaa !85
  %56 = icmp sge i32 %55, 1
  br i1 %56, label %57, label %70

57:                                               ; preds = %49, %43
  %58 = load ptr, ptr %4, align 8, !tbaa !4
  %59 = icmp ne ptr %58, null
  br i1 %59, label %60, label %70

60:                                               ; preds = %57
  %61 = load ptr, ptr %4, align 8, !tbaa !4
  %62 = getelementptr inbounds nuw %struct.Curl_cfilter, ptr %61, i32 0, i32 0
  %63 = load ptr, ptr %62, align 8, !tbaa !87
  %64 = getelementptr inbounds nuw %struct.Curl_cftype, ptr %63, i32 0, i32 2
  %65 = load i32, ptr %64, align 4, !tbaa !88
  %66 = icmp sge i32 %65, 1
  br i1 %66, label %67, label %70

67:                                               ; preds = %60
  %68 = load ptr, ptr %5, align 8, !tbaa !9
  %69 = load ptr, ptr %4, align 8, !tbaa !4
  call void (ptr, ptr, ptr, ...) @Curl_trc_cf_infof(ptr noundef %68, ptr noundef %69, ptr noundef @.str.15)
  br label %70

70:                                               ; preds = %67, %60, %57, %49, %34, %31
  br label %71

71:                                               ; preds = %70
  br label %72

72:                                               ; preds = %71
  %73 = load ptr, ptr %6, align 8, !tbaa !16
  %74 = getelementptr inbounds nuw %struct.cf_hc_ctx, ptr %73, i32 0, i32 4
  %75 = load ptr, ptr %5, align 8, !tbaa !9
  %76 = call zeroext i1 @cf_hc_baller_data_pending(ptr noundef %74, ptr noundef %75)
  br i1 %76, label %82, label %77

77:                                               ; preds = %72
  %78 = load ptr, ptr %6, align 8, !tbaa !16
  %79 = getelementptr inbounds nuw %struct.cf_hc_ctx, ptr %78, i32 0, i32 5
  %80 = load ptr, ptr %5, align 8, !tbaa !9
  %81 = call zeroext i1 @cf_hc_baller_data_pending(ptr noundef %79, ptr noundef %80)
  br label %82

82:                                               ; preds = %77, %72
  %83 = phi i1 [ true, %72 ], [ %81, %77 ]
  store i1 %83, ptr %3, align 1
  store i32 1, ptr %7, align 4
  br label %84

84:                                               ; preds = %82, %17
  call void @llvm.lifetime.end.p0(i64 8, ptr %6) #5
  %85 = load i1, ptr %3, align 1
  ret i1 %85
}