; Function Attrs: nounwind uwtable
define internal zeroext i1 @cf_hc_data_pending(ptr noundef %0, ptr noundef %1) #0 {
  %3 = getelementptr inbounds nuw i8, ptr %0, i64 16
  %4 = load ptr, ptr %3, align 8, !tbaa !4
  %5 = getelementptr inbounds nuw i8, ptr %0, i64 36
  %6 = load i8, ptr %5, align 4
  %7 = and i8 %6, 1
  %.not = icmp eq i8 %7, 0
  br i1 %.not, label %11, label %8

8:                                                ; preds = %2
  %9 = getelementptr inbounds nuw i8, ptr %0, i64 8
  %10 = load ptr, ptr %9, align 8, !tbaa !101
  br label %cf_hc_baller_data_pending.exit26.sink.split

11:                                               ; preds = %2
  %.not21 = icmp eq ptr %1, null
  br i1 %.not21, label %29, label %12

12:                                               ; preds = %11
  %13 = getelementptr inbounds nuw i8, ptr %1, i64 2562
  %14 = load i64, ptr %13, align 2
  %15 = and i64 %14, 134217728
  %.not22 = icmp eq i64 %15, 0
  br i1 %.not22, label %29, label %16

16:                                               ; preds = %12
  %17 = getelementptr inbounds nuw i8, ptr %1, i64 4712
  %18 = load ptr, ptr %17, align 8, !tbaa !13
  %.not23 = icmp eq ptr %18, null
  br i1 %.not23, label %23, label %19

19:                                               ; preds = %16
  %20 = getelementptr inbounds nuw i8, ptr %18, i64 8
  %21 = load i32, ptr %20, align 8, !tbaa !81
  %22 = icmp sgt i32 %21, 0
  br i1 %22, label %23, label %29

23:                                               ; preds = %16, %19
  %24 = load ptr, ptr %0, align 8, !tbaa !83
  %25 = getelementptr inbounds nuw i8, ptr %24, i64 12
  %26 = load i32, ptr %25, align 4, !tbaa !84
  %27 = icmp sgt i32 %26, 0
  br i1 %27, label %28, label %29

28:                                               ; preds = %23
  tail call void (ptr, ptr, ptr, ...) @Curl_trc_cf_infof(ptr noundef nonnull %1, ptr noundef nonnull %0, ptr noundef nonnull @.str.15) #4
  br label %29

29:                                               ; preds = %28, %23, %19, %12, %11
  %30 = getelementptr inbounds nuw i8, ptr %4, i64 48
  %31 = load ptr, ptr %30, align 8, !tbaa !86
  %.not.i = icmp eq ptr %31, null
  br i1 %.not.i, label %cf_hc_baller_data_pending.exit.thread, label %32

32:                                               ; preds = %29
  %33 = getelementptr inbounds nuw i8, ptr %4, i64 56
  %34 = load i32, ptr %33, align 8, !tbaa !88
  %.not5.i = icmp eq i32 %34, 0
  br i1 %.not5.i, label %cf_hc_baller_data_pending.exit, label %cf_hc_baller_data_pending.exit.thread

cf_hc_baller_data_pending.exit:                   ; preds = %32
  %35 = load ptr, ptr %31, align 8, !tbaa !83
  %36 = getelementptr inbounds nuw i8, ptr %35, i64 64
  %37 = load ptr, ptr %36, align 8, !tbaa !127
  %38 = tail call zeroext i1 %37(ptr noundef nonnull %31, ptr noundef %1) #4
  br i1 %38, label %cf_hc_baller_data_pending.exit26, label %cf_hc_baller_data_pending.exit.thread

cf_hc_baller_data_pending.exit.thread:            ; preds = %29, %32, %cf_hc_baller_data_pending.exit
  %39 = getelementptr inbounds nuw i8, ptr %4, i64 96
  %40 = load ptr, ptr %39, align 8, !tbaa !86
  %.not.i24 = icmp eq ptr %40, null
  br i1 %.not.i24, label %cf_hc_baller_data_pending.exit26, label %41

41:                                               ; preds = %cf_hc_baller_data_pending.exit.thread
  %42 = getelementptr inbounds nuw i8, ptr %4, i64 104
  %43 = load i32, ptr %42, align 8, !tbaa !88
  %.not5.i25 = icmp eq i32 %43, 0
  br i1 %.not5.i25, label %cf_hc_baller_data_pending.exit26.sink.split, label %cf_hc_baller_data_pending.exit26

cf_hc_baller_data_pending.exit26.sink.split:      ; preds = %41, %8
  %.sink30 = phi ptr [ %10, %8 ], [ %40, %41 ]
  %44 = load ptr, ptr %.sink30, align 8, !tbaa !83
  %45 = getelementptr inbounds nuw i8, ptr %44, i64 64
  %46 = load ptr, ptr %45, align 8, !tbaa !127
  %47 = tail call zeroext i1 %46(ptr noundef nonnull %.sink30, ptr noundef %1) #4
  br label %cf_hc_baller_data_pending.exit26

cf_hc_baller_data_pending.exit26:                 ; preds = %cf_hc_baller_data_pending.exit26.sink.split, %41, %cf_hc_baller_data_pending.exit.thread, %cf_hc_baller_data_pending.exit
  %.0 = phi i1 [ true, %cf_hc_baller_data_pending.exit ], [ false, %41 ], [ false, %cf_hc_baller_data_pending.exit.thread ], [ %47, %cf_hc_baller_data_pending.exit26.sink.split ]
  ret i1 %.0
}